target datalayout = "e-m:e-p270:32:32-p271:32:32-p272:64:64-i64:64-i128:128-f80:128-n8:16:32:64-S128"
target triple = "x86_64-unknown-linux-gnu"

%"class.icu_75::UObject" = type { ptr }
%"class.icu_75::CollationLoader" = type { ptr, ptr, %"class.icu_75::Locale", %"class.icu_75::Locale", [16 x i8], [16 x i8], i32, i8, ptr, ptr, ptr }
%"class.icu_75::Locale" = type <{ %"class.icu_75::UObject", [12 x i8], [6 x i8], [4 x i8], [2 x i8], i32, [4 x i8], ptr, [157 x i8], [3 x i8], ptr, i8, [7 x i8] }>
%"class.icu_75::LocaleCacheKey" = type { %"class.icu_75::CacheKey.base", [3 x i8], %"class.icu_75::Locale" }
%"class.icu_75::CacheKey.base" = type { %"class.icu_75::CacheKeyBase.base" }
%"class.icu_75::CacheKeyBase.base" = type <{ %"class.icu_75::UObject", i32, i8 }>
%"class.icu_75::CacheKeyBase" = type <{ %"class.icu_75::UObject", i32, i8, [3 x i8] }>

@_ZTVN6icu_757UObjectE = external unnamed_addr constant { [5 x ptr] }, align 8
@_ZTVN6icu_7512CacheKeyBaseE = external unnamed_addr constant { [10 x ptr] }, align 8

; Function Attrs: mustprogress nounwind uwtable
define linkonce_odr void @_ZN6icu_757UObjectC2Ev(ptr noundef nonnull align 8 dereferenceable(8) %this) unnamed_addr #0 comdat align 2 {
entry:
  %this.addr = alloca ptr, align 8
  store ptr %this, ptr %this.addr, align 8
  %this1 = load ptr, ptr %this.addr, align 8
  store ptr getelementptr inbounds ({ [5 x ptr] }, ptr @_ZTVN6icu_757UObjectE, i32 0, i32 0, i32 2), ptr %this1, align 8
  ret void
}

; Function Attrs: mustprogress nounwind uwtable
define linkonce_odr void @_ZN6icu_7512CacheKeyBaseC2Ev(ptr noundef nonnull align 8 dereferenceable(13) %this) unnamed_addr #0 comdat align 2 {
entry:
  %this.addr = alloca ptr, align 8
  store ptr %this, ptr %this.addr, align 8
  %this1 = load ptr, ptr %this.addr, align 8
  call void @_ZN6icu_757UObjectC2Ev(ptr noundef nonnull align 8 dereferenceable(8) %this1) #9
  store ptr getelementptr inbounds ({ [10 x ptr] }, ptr @_ZTVN6icu_7512CacheKeyBaseE, i32 0, i32 0, i32 2), ptr %this1, align 8
  %fCreationStatus = getelementptr inbounds %"class.icu_75::CacheKeyBase", ptr %this1, i32 0, i32 1
  store i32 0, ptr %fCreationStatus, align 8
  %fIsPrimary = getelementptr inbounds %"class.icu_75::CacheKeyBase", ptr %this1, i32 0, i32 2
  store i8 0, ptr %fIsPrimary, align 4
  ret void
}

; Function Attrs: mustprogress uwtable
define linkonce_odr void @_ZN6icu_7512SharedObject8clearPtrINS_19CollationCacheEntryEEEvRPKT_(ptr noundef nonnull align 8 dereferenceable(8) %ptr) #1 comdat align 2 {
entry:
  %ptr.addr = alloca ptr, align 8
  store ptr %ptr, ptr %ptr.addr, align 8
  %0 = load ptr, ptr %ptr.addr, align 8
  %1 = load ptr, ptr %0, align 8
  %cmp = icmp ne ptr %1, null
  br i1 %cmp, label %if.then, label %if.end

if.then:                                          ; preds = %entry
  %2 = load ptr, ptr %ptr.addr, align 8
  %3 = load ptr, ptr %2, align 8
  call void @_ZNK6icu_7512SharedObject9removeRefEv(ptr noundef nonnull align 8 dereferenceable(24) %3)
  %4 = load ptr, ptr %ptr.addr, align 8
  store ptr null, ptr %4, align 8
  br label %if.end

if.end:                                           ; preds = %if.then, %entry
  ret void
}

; Function Attrs: mustprogress uwtable
define linkonce_odr void @_ZN6icu_7512SharedObject7copyPtrINS_19CollationCacheEntryEEEvPKT_RS5_(ptr noundef %src, ptr noundef nonnull align 8 dereferenceable(8) %dest) #1 comdat align 2 {
entry:
  %src.addr = alloca ptr, align 8
  %dest.addr = alloca ptr, align 8
  store ptr %src, ptr %src.addr, align 8
  store ptr %dest, ptr %dest.addr, align 8
  %0 = load ptr, ptr %src.addr, align 8
  %1 = load ptr, ptr %dest.addr, align 8
  %2 = load ptr, ptr %1, align 8
  %cmp = icmp ne ptr %0, %2
  br i1 %cmp, label %if.then, label %if.end6

if.then:                                          ; preds = %entry
  %3 = load ptr, ptr %dest.addr, align 8
  %4 = load ptr, ptr %3, align 8
  %cmp1 = icmp ne ptr %4, null
  br i1 %cmp1, label %if.then2, label %if.end

if.then2:                                         ; preds = %if.then
  %5 = load ptr, ptr %dest.addr, align 8
  %6 = load ptr, ptr %5, align 8
  call void @_ZNK6icu_7512SharedObject9removeRefEv(ptr noundef nonnull align 8 dereferenceable(24) %6)
  br label %if.end

if.end:                                           ; preds = %if.then2, %if.then
  %7 = load ptr, ptr %src.addr, align 8
  %8 = load ptr, ptr %dest.addr, align 8
  store ptr %7, ptr %8, align 8
  %9 = load ptr, ptr %src.addr, align 8
  %cmp3 = icmp ne ptr %9, null
  br i1 %cmp3, label %if.then4, label %if.end5

if.then4:                                         ; preds = %if.end
  %10 = load ptr, ptr %src.addr, align 8
  call void @_ZNK6icu_7512SharedObject6addRefEv(ptr noundef nonnull align 8 dereferenceable(24) %10)
  br label %if.end5

if.end5:                                          ; preds = %if.then4, %if.end
  br label %if.end6

if.end6:                                          ; preds = %if.end5, %entry
  ret void
}

; Function Attrs: mustprogress nounwind uwtable
define internal noundef signext i8 @_ZL9U_SUCCESS10UErrorCode(i32 noundef %code) #0 {
entry:
  %code.addr = alloca i32, align 4
  store i32 %code, ptr %code.addr, align 4
  %0 = load i32, ptr %code.addr, align 4
  %cmp = icmp sle i32 %0, 0
  %conv = zext i1 %cmp to i8
  ret i8 %conv
}

; Function Attrs: mustprogress nounwind uwtable
define internal noundef signext i8 @_ZL9U_FAILURE10UErrorCode(i32 noundef %code) #0 {
entry:
  %code.addr = alloca i32, align 4
  store i32 %code, ptr %code.addr, align 4
  %0 = load i32, ptr %code.addr, align 4
  %cmp = icmp sgt i32 %0, 0
  %conv = zext i1 %cmp to i8
  ret i8 %conv
}

; Function Attrs: mustprogress nounwind uwtable
define linkonce_odr void @_ZN6icu_758CacheKeyINS_19CollationCacheEntryEED2Ev(ptr noundef nonnull align 8 dereferenceable(13) %this) unnamed_addr #0 comdat align 2 {
entry:
  %this.addr = alloca ptr, align 8
  store ptr %this, ptr %this.addr, align 8
  %this1 = load ptr, ptr %this.addr, align 8
  call void @_ZN6icu_7512CacheKeyBaseD2Ev(ptr noundef nonnull align 8 dereferenceable(13) %this1) #9
  ret void
}

; Function Attrs: mustprogress uwtable
define linkonce_odr void @_ZN6icu_758CacheKeyINS_19CollationCacheEntryEEC2Ev(ptr noundef nonnull align 8 dereferenceable(13) %this) unnamed_addr #1 comdat align 2 {
entry:
  %this.addr = alloca ptr, align 8
  store ptr %this, ptr %this.addr, align 8
  %this1 = load ptr, ptr %this.addr, align 8
  call void @_ZN6icu_7512CacheKeyBaseC2Ev(ptr noundef nonnull align 8 dereferenceable(13) %this1)
  store ptr getelementptr inbounds ({ [10 x ptr] }, ptr @_ZTVN6icu_758CacheKeyINS_19CollationCacheEntryEEE, i32 0, i32 0, i32 2), ptr %this1, align 8
  ret void
}

; Function Attrs: mustprogress nounwind uwtable
define linkonce_odr void @_ZN6icu_7514LocaleCacheKeyINS_19CollationCacheEntryEED2Ev(ptr noundef nonnull align 8 dereferenceable(240) %this) unnamed_addr #0 comdat align 2 {
entry:
  %this.addr = alloca ptr, align 8
  store ptr %this, ptr %this.addr, align 8
  %this1 = load ptr, ptr %this.addr, align 8
  store ptr getelementptr inbounds ({ [10 x ptr] }, ptr @_ZTVN6icu_7514LocaleCacheKeyINS_19CollationCacheEntryEEE, i32 0, i32 0, i32 2), ptr %this1, align 8
  %fLoc = getelementptr inbounds %"class.icu_75::LocaleCacheKey", ptr %this1, i32 0, i32 2
  call void @_ZN6icu_756LocaleD1Ev(ptr noundef nonnull align 8 dereferenceable(217) %fLoc) #9
  call void @_ZN6icu_758CacheKeyINS_19CollationCacheEntryEED2Ev(ptr noundef nonnull align 8 dereferenceable(13) %this1) #9
  ret void
}

; Function Attrs: mustprogress uwtable
define linkonce_odr void @_ZNK6icu_7512UnifiedCache3getINS_19CollationCacheEntryEEEvRKNS_8CacheKeyIT_EEPKvRPKS4_R10UErrorCode(ptr noundef nonnull align 8 dereferenceable(56) %this, ptr noundef nonnull align 8 dereferenceable(13) %key, ptr noundef %creationContext, ptr noundef nonnull align 8 dereferenceable(8) %ptr, ptr noundef nonnull align 4 dereferenceable(4) %status) #1 comdat align 2 {
entry:
  %this.addr = alloca ptr, align 8
  %key.addr = alloca ptr, align 8
  %creationContext.addr = alloca ptr, align 8
  %ptr.addr = alloca ptr, align 8
  %status.addr = alloca ptr, align 8
  %creationStatus = alloca i32, align 4
  %value = alloca ptr, align 8
  %tvalue = alloca ptr, align 8
  store ptr %this, ptr %this.addr, align 8
  store ptr %key, ptr %key.addr, align 8
  store ptr %creationContext, ptr %creationContext.addr, align 8
  store ptr %ptr, ptr %ptr.addr, align 8
  store ptr %status, ptr %status.addr, align 8
  %this1 = load ptr, ptr %this.addr, align 8
  %0 = load ptr, ptr %status.addr, align 8
  %1 = load i32, ptr %0, align 4
  %call = call noundef signext i8 @_ZL9U_FAILURE10UErrorCode(i32 noundef %1)
  %tobool = icmp ne i8 %call, 0
  br i1 %tobool, label %if.then, label %if.end

if.then:                                          ; preds = %entry
  br label %if.end9

if.end:                                           ; preds = %entry
  store i32 0, ptr %creationStatus, align 4
  store ptr null, ptr %value, align 8
  %2 = load ptr, ptr %key.addr, align 8
  %3 = load ptr, ptr %creationContext.addr, align 8
  call void @_ZNK6icu_7512UnifiedCache4_getERKNS_12CacheKeyBaseERPKNS_12SharedObjectEPKvR10UErrorCode(ptr noundef nonnull align 8 dereferenceable(56) %this1, ptr noundef nonnull align 8 dereferenceable(13) %2, ptr noundef nonnull align 8 dereferenceable(8) %value, ptr noundef %3, ptr noundef nonnull align 4 dereferenceable(4) %creationStatus)
  %4 = load ptr, ptr %value, align 8
  store ptr %4, ptr %tvalue, align 8
  %5 = load i32, ptr %creationStatus, align 4
  %call2 = call noundef signext i8 @_ZL9U_SUCCESS10UErrorCode(i32 noundef %5)
  %tobool3 = icmp ne i8 %call2, 0
  br i1 %tobool3, label %if.then4, label %if.end5

if.then4:                                         ; preds = %if.end
  %6 = load ptr, ptr %tvalue, align 8
  %7 = load ptr, ptr %ptr.addr, align 8
  call void @_ZN6icu_7512SharedObject7copyPtrINS_19CollationCacheEntryEEEvPKT_RS5_(ptr noundef %6, ptr noundef nonnull align 8 dereferenceable(8) %7)
  br label %if.end5

if.end5:                                          ; preds = %if.then4, %if.end
  call void @_ZN6icu_7512SharedObject8clearPtrINS_19CollationCacheEntryEEEvRPKT_(ptr noundef nonnull align 8 dereferenceable(8) %tvalue)
  %8 = load ptr, ptr %status.addr, align 8
  %9 = load i32, ptr %8, align 4
  %cmp = icmp eq i32 %9, 0
  br i1 %cmp, label %if.then8, label %lor.lhs.false

lor.lhs.false:                                    ; preds = %if.end5
  %10 = load i32, ptr %creationStatus, align 4
  %call6 = call noundef signext i8 @_ZL9U_FAILURE10UErrorCode(i32 noundef %10)
  %tobool7 = icmp ne i8 %call6, 0
  br i1 %tobool7, label %if.then8, label %if.end9

if.then8:                                         ; preds = %lor.lhs.false, %if.end5
  %11 = load i32, ptr %creationStatus, align 4
  %12 = load ptr, ptr %status.addr, align 8
  store i32 %11, ptr %12, align 4
  br label %if.end9

if.end9:                                          ; preds = %if.then8, %lor.lhs.false, %if.then
  ret void
}

; Function Attrs: mustprogress uwtable
define linkonce_odr void @_ZN6icu_7514LocaleCacheKeyINS_19CollationCacheEntryEEC2ERKNS_6LocaleE(ptr noundef nonnull align 8 dereferenceable(240) %this, ptr noundef nonnull align 8 dereferenceable(217) %loc) unnamed_addr #1 comdat align 2 personality ptr @__gxx_personality_v0 {
entry:
  %this.addr = alloca ptr, align 8
  %loc.addr = alloca ptr, align 8
  %exn.slot = alloca ptr, align 8
  %ehselector.slot = alloca i32, align 4
  store ptr %this, ptr %this.addr, align 8
  store ptr %loc, ptr %loc.addr, align 8
  %this1 = load ptr, ptr %this.addr, align 8
  call void @_ZN6icu_758CacheKeyINS_19CollationCacheEntryEEC2Ev(ptr noundef nonnull align 8 dereferenceable(13) %this1)
  store ptr getelementptr inbounds ({ [10 x ptr] }, ptr @_ZTVN6icu_7514LocaleCacheKeyINS_19CollationCacheEntryEEE, i32 0, i32 0, i32 2), ptr %this1, align 8
  %fLoc = getelementptr inbounds %"class.icu_75::LocaleCacheKey", ptr %this1, i32 0, i32 2
  %0 = load ptr, ptr %loc.addr, align 8
  invoke void @_ZN6icu_756LocaleC1ERKS0_(ptr noundef nonnull align 8 dereferenceable(217) %fLoc, ptr noundef nonnull align 8 dereferenceable(217) %0)
          to label %invoke.cont unwind label %lpad

invoke.cont:                                      ; preds = %entry
  ret void

lpad:                                             ; preds = %entry
  %1 = landingpad { ptr, i32 }
          cleanup
  %2 = extractvalue { ptr, i32 } %1, 0
  store ptr %2, ptr %exn.slot, align 8
  %3 = extractvalue { ptr, i32 } %1, 1
  store i32 %3, ptr %ehselector.slot, align 4
  call void @_ZN6icu_758CacheKeyINS_19CollationCacheEntryEED2Ev(ptr noundef nonnull align 8 dereferenceable(13) %this1) #9
  br label %eh.resume

eh.resume:                                        ; preds = %lpad
  %exn = load ptr, ptr %exn.slot, align 8
  %sel = load i32, ptr %ehselector.slot, align 4
  %lpad.val = insertvalue { ptr, i32 } poison, ptr %exn, 0
  %lpad.val2 = insertvalue { ptr, i32 } %lpad.val, i32 %sel, 1
  resume { ptr, i32 } %lpad.val2
}

; Function Attrs: mustprogress uwtable
define noundef ptr @_ZN6icu_7515CollationLoader13getCacheEntryER10UErrorCode(ptr noundef nonnull align 8 dereferenceable(528) %this, ptr noundef nonnull align 4 dereferenceable(4) %errorCode) #1 align 2 personality ptr @__gxx_personality_v0 {
entry:
  %this.addr = alloca ptr, align 8
  %errorCode.addr = alloca ptr, align 8
  %key = alloca %"class.icu_75::LocaleCacheKey", align 8
  %entry2 = alloca ptr, align 8
  %exn.slot = alloca ptr, align 8
  %ehselector.slot = alloca i32, align 4
  store ptr %this, ptr %this.addr, align 8
  store ptr %errorCode, ptr %errorCode.addr, align 8
  %this1 = load ptr, ptr %this.addr, align 8
  %locale = getelementptr inbounds %"class.icu_75::CollationLoader", ptr %this1, i32 0, i32 3
  call void @_ZN6icu_7514LocaleCacheKeyINS_19CollationCacheEntryEEC2ERKNS_6LocaleE(ptr noundef nonnull align 8 dereferenceable(240) %key, ptr noundef nonnull align 8 dereferenceable(217) %locale)
  store ptr null, ptr %entry2, align 8
  %cache = getelementptr inbounds %"class.icu_75::CollationLoader", ptr %this1, i32 0, i32 0
  %0 = load ptr, ptr %cache, align 8
  %1 = load ptr, ptr %errorCode.addr, align 8
  invoke void @_ZNK6icu_7512UnifiedCache3getINS_19CollationCacheEntryEEEvRKNS_8CacheKeyIT_EEPKvRPKS4_R10UErrorCode(ptr noundef nonnull align 8 dereferenceable(56) %0, ptr noundef nonnull align 8 dereferenceable(13) %key, ptr noundef %this1, ptr noundef nonnull align 8 dereferenceable(8) %entry2, ptr noundef nonnull align 4 dereferenceable(4) %1)
          to label %invoke.cont unwind label %lpad

invoke.cont:                                      ; preds = %entry
  %2 = load ptr, ptr %entry2, align 8
  call void @_ZN6icu_7514LocaleCacheKeyINS_19CollationCacheEntryEED2Ev(ptr noundef nonnull align 8 dereferenceable(240) %key) #9
  ret ptr %2

lpad:                                             ; preds = %entry
  %3 = landingpad { ptr, i32 }
          cleanup
  %4 = extractvalue { ptr, i32 } %3, 0
  store ptr %4, ptr %exn.slot, align 8
  %5 = extractvalue { ptr, i32 } %3, 1
  store i32 %5, ptr %ehselector.slot, align 4
  call void @_ZN6icu_7514LocaleCacheKeyINS_19CollationCacheEntryEED2Ev(ptr noundef nonnull align 8 dereferenceable(240) %key) #9
  br label %eh.resume

eh.resume:                                        ; preds = %lpad
  %exn = load ptr, ptr %exn.slot, align 8
  %sel = load i32, ptr %ehselector.slot, align 4
  %lpad.val = insertvalue { ptr, i32 } poison, ptr %exn, 0
  %lpad.val3 = insertvalue { ptr, i32 } %lpad.val, i32 %sel, 1
  resume { ptr, i32 } %lpad.val3
}