; Function Attrs: mustprogress uwtable
define noundef ptr @_ZN6icu_7515CollationLoader13getCacheEntryER10UErrorCode(ptr noundef nonnull align 8 dereferenceable(528) %this, ptr nocapture noundef nonnull align 4 dereferenceable(4) %errorCode) local_unnamed_addr #1 align 2 personality ptr @__gxx_personality_v0 {
entry:
  %creationStatus.i = alloca i32, align 4
  %value.i = alloca ptr, align 8
  %key = alloca %"class.icu_75::LocaleCacheKey", align 8
  %locale = getelementptr inbounds i8, ptr %this, i64 240
  %fCreationStatus.i.i.i = getelementptr inbounds i8, ptr %key, i64 8
  store i32 0, ptr %fCreationStatus.i.i.i, align 8
  %fIsPrimary.i.i.i = getelementptr inbounds i8, ptr %key, i64 12
  store i8 0, ptr %fIsPrimary.i.i.i, align 4
  store ptr getelementptr inbounds ({ [10 x ptr] }, ptr @_ZTVN6icu_7514LocaleCacheKeyINS_19CollationCacheEntryEEE, i64 0, i32 0, i64 2), ptr %key, align 8
  %fLoc.i = getelementptr inbounds i8, ptr %key, i64 16
  invoke void @_ZN6icu_756LocaleC1ERKS0_(ptr noundef nonnull align 8 dereferenceable(217) %fLoc.i, ptr noundef nonnull align 8 dereferenceable(217) %locale)
          to label %_ZN6icu_7514LocaleCacheKeyINS_19CollationCacheEntryEEC2ERKNS_6LocaleE.exit unwind label %lpad.i

common.resume:                                    ; preds = %lpad, %lpad.i
  %common.resume.op = phi { ptr, i32 } [ %0, %lpad.i ], [ %7, %lpad ]
  call void @_ZN6icu_7512CacheKeyBaseD2Ev(ptr noundef nonnull align 8 dereferenceable(13) %key) #13
  resume { ptr, i32 } %common.resume.op

lpad.i:                                           ; preds = %entry
  %0 = landingpad { ptr, i32 }
          cleanup
  br label %common.resume

_ZN6icu_7514LocaleCacheKeyINS_19CollationCacheEntryEEC2ERKNS_6LocaleE.exit: ; preds = %entry
  %1 = load ptr, ptr %this, align 8
  call void @llvm.lifetime.start.p0(i64 4, ptr nonnull %creationStatus.i)
  call void @llvm.lifetime.start.p0(i64 8, ptr nonnull %value.i)
  %2 = load i32, ptr %errorCode, align 4
  %cmp.i.i = icmp slt i32 %2, 1
  br i1 %cmp.i.i, label %if.end.i, label %invoke.cont

if.end.i:                                         ; preds = %_ZN6icu_7514LocaleCacheKeyINS_19CollationCacheEntryEEC2ERKNS_6LocaleE.exit
  store i32 0, ptr %creationStatus.i, align 4
  store ptr null, ptr %value.i, align 8
  invoke void @_ZNK6icu_7512UnifiedCache4_getERKNS_12CacheKeyBaseERPKNS_12SharedObjectEPKvR10UErrorCode(ptr noundef nonnull align 8 dereferenceable(56) %1, ptr noundef nonnull align 8 dereferenceable(13) %key, ptr noundef nonnull align 8 dereferenceable(8) %value.i, ptr noundef nonnull %this, ptr noundef nonnull align 4 dereferenceable(4) %creationStatus.i)
          to label %.noexc unwind label %lpad

.noexc:                                           ; preds = %if.end.i
  %3 = load ptr, ptr %value.i, align 8
  %4 = load i32, ptr %creationStatus.i, align 4
  %cmp.i3.i = icmp sgt i32 %4, 0
  %cmp.not.i.i = icmp eq ptr %3, null
  %or.cond = select i1 %cmp.i3.i, i1 true, i1 %cmp.not.i.i
  br i1 %or.cond, label %if.end5.i, label %if.end5.thread12.i

if.end5.thread12.i:                               ; preds = %.noexc
  invoke void @_ZNK6icu_7512SharedObject6addRefEv(ptr noundef nonnull align 8 dereferenceable(24) %3)
          to label %if.then.i6.i unwind label %lpad

if.end5.i:                                        ; preds = %.noexc
  br i1 %cmp.not.i.i, label %_ZN6icu_7512SharedObject8clearPtrINS_19CollationCacheEntryEEEvRPKT_.exit.i, label %if.then.i6.i

if.then.i6.i:                                     ; preds = %if.end5.thread12.i, %if.end5.i
  %entry2.0 = phi ptr [ null, %if.end5.i ], [ %3, %if.end5.thread12.i ]
  invoke void @_ZNK6icu_7512SharedObject9removeRefEv(ptr noundef nonnull align 8 dereferenceable(24) %3)
          to label %if.then.i6.i._ZN6icu_7512SharedObject8clearPtrINS_19CollationCacheEntryEEEvRPKT_.exit.i_crit_edge unwind label %lpad

if.then.i6.i._ZN6icu_7512SharedObject8clearPtrINS_19CollationCacheEntryEEEvRPKT_.exit.i_crit_edge: ; preds = %if.then.i6.i
  %.pre = load i32, ptr %creationStatus.i, align 4
  br label %_ZN6icu_7512SharedObject8clearPtrINS_19CollationCacheEntryEEEvRPKT_.exit.i

_ZN6icu_7512SharedObject8clearPtrINS_19CollationCacheEntryEEEvRPKT_.exit.i: ; preds = %if.then.i6.i._ZN6icu_7512SharedObject8clearPtrINS_19CollationCacheEntryEEEvRPKT_.exit.i_crit_edge, %if.end5.i
  %5 = phi i32 [ %4, %if.end5.i ], [ %.pre, %if.then.i6.i._ZN6icu_7512SharedObject8clearPtrINS_19CollationCacheEntryEEEvRPKT_.exit.i_crit_edge ]
  %entry2.1 = phi ptr [ null, %if.end5.i ], [ %entry2.0, %if.then.i6.i._ZN6icu_7512SharedObject8clearPtrINS_19CollationCacheEntryEEEvRPKT_.exit.i_crit_edge ]
  %6 = load i32, ptr %errorCode, align 4
  %cmp.i = icmp ne i32 %6, 0
  %cmp.i8.i = icmp slt i32 %5, 1
  %or.cond.i = select i1 %cmp.i, i1 %cmp.i8.i, i1 false
  br i1 %or.cond.i, label %invoke.cont, label %if.then8.i

if.then8.i:                                       ; preds = %_ZN6icu_7512SharedObject8clearPtrINS_19CollationCacheEntryEEEvRPKT_.exit.i
  store i32 %5, ptr %errorCode, align 4
  br label %invoke.cont

invoke.cont:                                      ; preds = %if.then8.i, %_ZN6icu_7512SharedObject8clearPtrINS_19CollationCacheEntryEEEvRPKT_.exit.i, %_ZN6icu_7514LocaleCacheKeyINS_19CollationCacheEntryEEC2ERKNS_6LocaleE.exit
  %entry2.2 = phi ptr [ %entry2.1, %_ZN6icu_7512SharedObject8clearPtrINS_19CollationCacheEntryEEEvRPKT_.exit.i ], [ %entry2.1, %if.then8.i ], [ null, %_ZN6icu_7514LocaleCacheKeyINS_19CollationCacheEntryEEC2ERKNS_6LocaleE.exit ]
  call void @llvm.lifetime.end.p0(i64 4, ptr nonnull %creationStatus.i)
  call void @llvm.lifetime.end.p0(i64 8, ptr nonnull %value.i)
  store ptr getelementptr inbounds ({ [10 x ptr] }, ptr @_ZTVN6icu_7514LocaleCacheKeyINS_19CollationCacheEntryEEE, i64 0, i32 0, i64 2), ptr %key, align 8
  call void @_ZN6icu_756LocaleD1Ev(ptr noundef nonnull align 8 dereferenceable(217) %fLoc.i) #13
  call void @_ZN6icu_7512CacheKeyBaseD2Ev(ptr noundef nonnull align 8 dereferenceable(13) %key) #13
  ret ptr %entry2.2

lpad:                                             ; preds = %if.then.i6.i, %if.end5.thread12.i, %if.end.i
  %7 = landingpad { ptr, i32 }
          cleanup
  store ptr getelementptr inbounds ({ [10 x ptr] }, ptr @_ZTVN6icu_7514LocaleCacheKeyINS_19CollationCacheEntryEEE, i64 0, i32 0, i64 2), ptr %key, align 8
  call void @_ZN6icu_756LocaleD1Ev(ptr noundef nonnull align 8 dereferenceable(217) %fLoc.i) #13
  br label %common.resume
}